target datalayout = "e-m:e-p270:32:32-p271:32:32-p272:64:64-i64:64-i128:128-f80:128-n8:16:32:64-S128"
target triple = "x86_64-pc-linux-gnu"

%struct.ParseState = type { ptr, ptr, i32, i32, ptr, ptr, ptr, ptr, ptr, ptr, i8, ptr, ptr, ptr, ptr, ptr, ptr, i8, ptr, i32, i32, ptr, ptr, i8, i8, ptr, i8, i8, i8, i8, i8, ptr, ptr, ptr, ptr, ptr, ptr }
%struct.Query = type { i32, i32, i32, i64, i8, ptr, i32, i8, i8, i8, i8, i8, i8, i8, i8, i8, i8, i8, ptr, ptr, ptr, ptr, ptr, i32, ptr, ptr, i32, ptr, ptr, ptr, ptr, ptr, i8, ptr, ptr, ptr, ptr, ptr, ptr, ptr, i32, ptr, ptr, ptr, ptr, i32, i32 }
%struct.RawStmt = type { i32, ptr, i32, i32 }
%struct.Node = type { i32 }
%struct.SelectStmt = type { i32, ptr, ptr, ptr, ptr, ptr, ptr, i8, ptr, ptr, ptr, ptr, ptr, ptr, i32, ptr, ptr, i32, i8, ptr, ptr, i32, i32 }
%struct.CreateTableAsStmt = type { i32, ptr, ptr, i32, i8, i8 }

@post_parse_analyze_hook = dso_local global ptr null, align 8
@compute_query_id = external global i32, align 4
@query_id_enabled = external global i8, align 1

; Function Attrs: inlinehint nounwind uwtable
define internal ptr @newNode(i64 noundef %0, i32 noundef %1) #3 {
  %3 = alloca i64, align 8
  %4 = alloca i32, align 4
  %5 = alloca ptr, align 8
  store i64 %0, ptr %3, align 8
  store i32 %1, ptr %4, align 4
  call void @llvm.lifetime.start.p0(i64 8, ptr %5) #8
  %6 = load i64, ptr %3, align 8
  %7 = call ptr @palloc0(i64 noundef %6)
  store ptr %7, ptr %5, align 8
  %8 = load i32, ptr %4, align 4
  %9 = load ptr, ptr %5, align 8
  %10 = getelementptr inbounds nuw %struct.Node, ptr %9, i32 0, i32 0
  store i32 %8, ptr %10, align 4
  %11 = load ptr, ptr %5, align 8
  call void @llvm.lifetime.end.p0(i64 8, ptr %5) #8
  ret ptr %11
}

; Function Attrs: nounwind uwtable
define internal ptr @transformOptionalSelectInto(ptr noundef %0, ptr noundef %1) #0 {
  %3 = alloca ptr, align 8
  %4 = alloca ptr, align 8
  %5 = alloca ptr, align 8
  %6 = alloca ptr, align 8
  store ptr %0, ptr %3, align 8
  store ptr %1, ptr %4, align 8
  %7 = load ptr, ptr %4, align 8
  %8 = getelementptr inbounds nuw %struct.Node, ptr %7, i32 0, i32 0
  %9 = load i32, ptr %8, align 4
  %10 = icmp eq i32 %9, 141
  br i1 %10, label %11, label %50

11:                                               ; preds = %2
  call void @llvm.lifetime.start.p0(i64 8, ptr %5) #8
  %12 = load ptr, ptr %4, align 8
  store ptr %12, ptr %5, align 8
  br label %13

13:                                               ; preds = %23, %11
  %14 = load ptr, ptr %5, align 8
  %15 = icmp ne ptr %14, null
  br i1 %15, label %16, label %21

16:                                               ; preds = %13
  %17 = load ptr, ptr %5, align 8
  %18 = getelementptr inbounds nuw %struct.SelectStmt, ptr %17, i32 0, i32 17
  %19 = load i32, ptr %18, align 8
  %20 = icmp ne i32 %19, 0
  br label %21

21:                                               ; preds = %16, %13
  %22 = phi i1 [ false, %13 ], [ %20, %16 ]
  br i1 %22, label %23, label %27

23:                                               ; preds = %21
  %24 = load ptr, ptr %5, align 8
  %25 = getelementptr inbounds nuw %struct.SelectStmt, ptr %24, i32 0, i32 19
  %26 = load ptr, ptr %25, align 8
  store ptr %26, ptr %5, align 8
  br label %13, !llvm.loop !6

27:                                               ; preds = %21
  %28 = load ptr, ptr %5, align 8
  %29 = getelementptr inbounds nuw %struct.SelectStmt, ptr %28, i32 0, i32 2
  %30 = load ptr, ptr %29, align 8
  %31 = icmp ne ptr %30, null
  br i1 %31, label %32, label %49

32:                                               ; preds = %27
  call void @llvm.lifetime.start.p0(i64 8, ptr %6) #8
  %33 = call ptr @newNode(i64 noundef 32, i32 noundef 241)
  store ptr %33, ptr %6, align 8
  %34 = load ptr, ptr %4, align 8
  %35 = load ptr, ptr %6, align 8
  %36 = getelementptr inbounds nuw %struct.CreateTableAsStmt, ptr %35, i32 0, i32 1
  store ptr %34, ptr %36, align 8
  %37 = load ptr, ptr %5, align 8
  %38 = getelementptr inbounds nuw %struct.SelectStmt, ptr %37, i32 0, i32 2
  %39 = load ptr, ptr %38, align 8
  %40 = load ptr, ptr %6, align 8
  %41 = getelementptr inbounds nuw %struct.CreateTableAsStmt, ptr %40, i32 0, i32 2
  store ptr %39, ptr %41, align 8
  %42 = load ptr, ptr %6, align 8
  %43 = getelementptr inbounds nuw %struct.CreateTableAsStmt, ptr %42, i32 0, i32 3
  store i32 41, ptr %43, align 8
  %44 = load ptr, ptr %6, align 8
  %45 = getelementptr inbounds nuw %struct.CreateTableAsStmt, ptr %44, i32 0, i32 4
  store i8 1, ptr %45, align 4
  %46 = load ptr, ptr %5, align 8
  %47 = getelementptr inbounds nuw %struct.SelectStmt, ptr %46, i32 0, i32 2
  store ptr null, ptr %47, align 8
  %48 = load ptr, ptr %6, align 8
  store ptr %48, ptr %4, align 8
  call void @llvm.lifetime.end.p0(i64 8, ptr %6) #8
  br label %49

49:                                               ; preds = %32, %27
  call void @llvm.lifetime.end.p0(i64 8, ptr %5) #8
  br label %50

50:                                               ; preds = %49, %2
  %51 = load ptr, ptr %3, align 8
  %52 = load ptr, ptr %4, align 8
  %53 = call ptr @transformStmt(ptr noundef %51, ptr noundef %52)
  ret ptr %53
}

; Function Attrs: inlinehint nounwind uwtable
define internal zeroext i1 @IsQueryIdEnabled() #3 {
  %1 = alloca i1, align 1
  %2 = load i32, ptr @compute_query_id, align 4
  %3 = icmp eq i32 %2, 0
  br i1 %3, label %4, label %5

4:                                                ; preds = %0
  store i1 false, ptr %1, align 1
  br label %12

5:                                                ; preds = %0
  %6 = load i32, ptr @compute_query_id, align 4
  %7 = icmp eq i32 %6, 1
  br i1 %7, label %8, label %9

8:                                                ; preds = %5
  store i1 true, ptr %1, align 1
  br label %12

9:                                                ; preds = %5
  %10 = load i8, ptr @query_id_enabled, align 1, !range !4, !noundef !5
  %11 = trunc i8 %10 to i1
  store i1 %11, ptr %1, align 1
  br label %12

12:                                               ; preds = %9, %8, %4
  %13 = load i1, ptr %1, align 1
  ret i1 %13
}

; Function Attrs: nounwind uwtable
define dso_local ptr @transformTopLevelStmt(ptr noundef %0, ptr noundef %1) #0 {
  %3 = alloca ptr, align 8
  %4 = alloca ptr, align 8
  %5 = alloca ptr, align 8
  store ptr %0, ptr %3, align 8
  store ptr %1, ptr %4, align 8
  call void @llvm.lifetime.start.p0(i64 8, ptr %5) #8
  %6 = load ptr, ptr %4, align 8
  %7 = getelementptr inbounds nuw %struct.RawStmt, ptr %6, i32 0, i32 3
  %8 = load i32, ptr %7, align 4
  %9 = load ptr, ptr %3, align 8
  %10 = getelementptr inbounds nuw %struct.ParseState, ptr %9, i32 0, i32 3
  store i32 %8, ptr %10, align 4
  %11 = load ptr, ptr %4, align 8
  %12 = getelementptr inbounds nuw %struct.RawStmt, ptr %11, i32 0, i32 2
  %13 = load i32, ptr %12, align 8
  %14 = load ptr, ptr %3, align 8
  %15 = getelementptr inbounds nuw %struct.ParseState, ptr %14, i32 0, i32 2
  store i32 %13, ptr %15, align 8
  %16 = load ptr, ptr %3, align 8
  %17 = load ptr, ptr %4, align 8
  %18 = getelementptr inbounds nuw %struct.RawStmt, ptr %17, i32 0, i32 1
  %19 = load ptr, ptr %18, align 8
  %20 = call ptr @transformOptionalSelectInto(ptr noundef %16, ptr noundef %19)
  store ptr %20, ptr %5, align 8
  %21 = load ptr, ptr %5, align 8
  call void @llvm.lifetime.end.p0(i64 8, ptr %5) #8
  ret ptr %21
}

; Function Attrs: nounwind uwtable
define dso_local ptr @parse_analyze_withcb(ptr noundef %0, ptr noundef %1, ptr noundef %2, ptr noundef %3, ptr noundef %4) #0 {
  %6 = alloca ptr, align 8
  %7 = alloca ptr, align 8
  %8 = alloca ptr, align 8
  %9 = alloca ptr, align 8
  %10 = alloca ptr, align 8
  %11 = alloca ptr, align 8
  %12 = alloca ptr, align 8
  %13 = alloca ptr, align 8
  store ptr %0, ptr %6, align 8
  store ptr %1, ptr %7, align 8
  store ptr %2, ptr %8, align 8
  store ptr %3, ptr %9, align 8
  store ptr %4, ptr %10, align 8
  call void @llvm.lifetime.start.p0(i64 8, ptr %11) #8
  %14 = call ptr @make_parsestate(ptr noundef null)
  store ptr %14, ptr %11, align 8
  call void @llvm.lifetime.start.p0(i64 8, ptr %12) #8
  call void @llvm.lifetime.start.p0(i64 8, ptr %13) #8
  store ptr null, ptr %13, align 8
  %15 = load ptr, ptr %7, align 8
  %16 = load ptr, ptr %11, align 8
  %17 = getelementptr inbounds nuw %struct.ParseState, ptr %16, i32 0, i32 1
  store ptr %15, ptr %17, align 8
  %18 = load ptr, ptr %10, align 8
  %19 = load ptr, ptr %11, align 8
  %20 = getelementptr inbounds nuw %struct.ParseState, ptr %19, i32 0, i32 25
  store ptr %18, ptr %20, align 8
  %21 = load ptr, ptr %8, align 8
  %22 = load ptr, ptr %11, align 8
  %23 = load ptr, ptr %9, align 8
  call void %21(ptr noundef %22, ptr noundef %23)
  %24 = load ptr, ptr %11, align 8
  %25 = load ptr, ptr %6, align 8
  %26 = call ptr @transformTopLevelStmt(ptr noundef %24, ptr noundef %25)
  store ptr %26, ptr %12, align 8
  %27 = call zeroext i1 @IsQueryIdEnabled()
  br i1 %27, label %28, label %31

28:                                               ; preds = %5
  %29 = load ptr, ptr %12, align 8
  %30 = call ptr @JumbleQuery(ptr noundef %29)
  store ptr %30, ptr %13, align 8
  br label %31

31:                                               ; preds = %28, %5
  %32 = load ptr, ptr @post_parse_analyze_hook, align 8
  %33 = icmp ne ptr %32, null
  br i1 %33, label %34, label %39

34:                                               ; preds = %31
  %35 = load ptr, ptr @post_parse_analyze_hook, align 8
  %36 = load ptr, ptr %11, align 8
  %37 = load ptr, ptr %12, align 8
  %38 = load ptr, ptr %13, align 8
  call void %35(ptr noundef %36, ptr noundef %37, ptr noundef %38)
  br label %39

39:                                               ; preds = %34, %31
  %40 = load ptr, ptr %11, align 8
  call void @free_parsestate(ptr noundef %40)
  %41 = load ptr, ptr %12, align 8
  %42 = getelementptr inbounds nuw %struct.Query, ptr %41, i32 0, i32 3
  %43 = load i64, ptr %42, align 8
  call void @pgstat_report_query_id(i64 noundef %43, i1 noundef zeroext false)
  %44 = load ptr, ptr %12, align 8
  call void @llvm.lifetime.end.p0(i64 8, ptr %13) #8
  call void @llvm.lifetime.end.p0(i64 8, ptr %12) #8
  call void @llvm.lifetime.end.p0(i64 8, ptr %11) #8
  ret ptr %44
}